Certificate:
    Data:
        Version: 3 (0x2)
        Serial Number: 305419900 (0x1234567c)
        Signature Algorithm: sha256WithRSAEncryption
        Issuer: CN=SRK2_sha256_2048_65537_v3_ca
        Validity
            Not Before: Nov 14 13:05:54 2024 GMT
            Not After : Nov 13 13:05:54 2029 GMT
        Subject: CN=CSF2_1_sha256_2048_65537_v3_usr
        Subject Public Key Info:
            Public Key Algorithm: rsaEncryption
                RSA Public-Key: (2048 bit)
                Modulus:
                    00:d9:e8:3b:64:77:12:08:d0:6e:b0:cf:c6:5c:98:
                    b0:a8:81:c4:1e:5c:02:13:36:4d:8a:71:1b:89:3d:
                    bd:a3:cc:07:81:d9:28:d6:6d:10:6a:a7:d9:5a:df:
                    51:94:7c:f0:96:16:c4:7e:11:2a:ec:78:52:38:6b:
                    d6:ec:08:9f:16:fc:8a:ec:79:34:31:44:df:0a:3e:
                    52:0c:8a:1e:b5:2d:9d:6e:60:df:92:24:fc:6f:e6:
                    07:e2:d9:d2:bf:11:ba:f6:83:8a:ab:b1:cc:8e:05:
                    b1:d5:29:e1:f2:76:36:c6:fc:ac:38:3b:3d:48:16:
                    8d:f3:2a:d6:20:99:ec:76:6c:d3:eb:3c:b1:a5:33:
                    b2:31:d0:95:19:25:3c:f3:b0:7f:b9:ae:0e:85:d1:
                    5b:90:8c:e3:96:19:7e:8a:fc:99:6a:ba:9d:52:44:
                    93:dd:85:3e:b9:e2:30:a4:4c:ef:ae:18:1a:49:3f:
                    c5:c8:df:ce:59:0f:91:6f:0f:b4:86:c5:ec:18:89:
                    02:a0:8d:bb:06:de:1e:aa:80:c1:4c:9e:f1:a7:79:
                    93:9a:2b:9b:ea:79:bc:a7:4b:d8:66:bf:3b:75:3c:
                    c8:5a:1f:36:6f:53:53:f4:ae:58:56:53:a2:d7:2c:
                    c8:8f:5a:a0:5d:b7:21:d3:5f:63:bb:03:e0:9d:c9:
                    32:65
                Exponent: 65537 (0x10001)
        X509v3 extensions:
            X509v3 Basic Constraints: 
                CA:FALSE
            Netscape Comment: 
                OpenSSL Generated Certificate
            X509v3 Subject Key Identifier: 
                48:92:2F:B6:03:11:E2:A7:AF:75:A6:CA:75:27:7C:3B:A8:C8:59:1F
            X509v3 Authority Key Identifier: 
                keyid:F6:55:2F:AC:A3:13:71:0B:C6:F6:94:C0:EE:2B:95:EE:FD:D4:DC:1A

    Signature Algorithm: sha256WithRSAEncryption
         20:76:12:74:dd:3a:26:ca:90:c2:b8:7b:9c:7a:e5:b3:12:2c:
         24:35:69:f1:9c:dc:02:23:a8:48:f2:76:1a:17:49:d0:45:8b:
         9e:95:13:df:0b:1a:b1:bd:ad:47:4c:23:cc:e9:fc:aa:24:06:
         08:3d:2e:0a:77:f6:91:e0:b5:86:42:2a:5d:3b:a2:79:5c:63:
         fc:ee:6f:2f:69:bc:9f:45:39:17:51:5c:cf:e9:55:08:95:58:
         ec:25:8d:74:76:a0:c7:ff:e9:49:31:e9:f1:4f:2c:9f:da:a3:
         e9:e0:2c:d1:dd:23:f1:ff:d1:9f:8c:1f:ca:44:cf:f7:0e:58:
         3b:13:b6:69:c7:39:6b:b7:21:3b:71:44:dc:a4:4f:04:87:82:
         04:b6:ef:4a:34:87:05:7a:92:08:2c:8b:f3:90:de:e6:a9:d6:
         be:db:61:82:5d:7f:89:40:a3:dd:78:a2:79:4b:71:d7:95:87:
         00:32:ef:8d:81:a8:ba:17:e1:7d:72:4c:7f:60:89:cc:3c:99:
         79:95:08:0a:22:ba:9c:78:42:a6:4b:75:bc:f1:6b:b5:49:ab:
         6a:9c:81:5d:b4:73:a3:cb:c7:ec:72:c8:08:01:29:3e:0d:19:
         8b:d9:44:51:fd:b5:ef:ae:48:d4:2f:7b:eb:5d:90:ab:f6:ab:
         c3:5f:20:e8
-----BEGIN CERTIFICATE-----
MIIDSjCCAjKgAwIBAgIEEjRWfDANBgkqhkiG9w0BAQsFADAnMSUwIwYDVQQDDBxT
UksyX3NoYTI1Nl8yMDQ4XzY1NTM3X3YzX2NhMB4XDTI0MTExNDEzMDU1NFoXDTI5
MTExMzEzMDU1NFowKjEoMCYGA1UEAwwfQ1NGMl8xX3NoYTI1Nl8yMDQ4XzY1NTM3
X3YzX3VzcjCCASIwDQYJKoZIhvcNAQEBBQADggEPADCCAQoCggEBANnoO2R3EgjQ
brDPxlyYsKiBxB5cAhM2TYpxG4k9vaPMB4HZKNZtEGqn2VrfUZR88JYWxH4RKux4
Ujhr1uwInxb8iux5NDFE3wo+UgyKHrUtnW5g35Ik/G/mB+LZ0r8RuvaDiquxzI4F
sdUp4fJ2Nsb8rDg7PUgWjfMq1iCZ7HZs0+s8saUzsjHQlRklPPOwf7muDoXRW5CM
45YZfor8mWq6nVJEk92FPrniMKRM764YGkk/xcjfzlkPkW8PtIbF7BiJAqCNuwbe
HqqAwUye8ad5k5orm+p5vKdL2Ga/O3U8yFofNm9TU/SuWFZTotcsyI9aoF23IdNf
Y7sD4J3JMmUCAwEAAaN7MHkwCQYDVR0TBAIwADAsBglghkgBhvhCAQ0EHxYdT3Bl
blNTTCBHZW5lcmF0ZWQgQ2VydGlmaWNhdGUwHQYDVR0OBBYEFEiSL7YDEeKnr3Wm
ynUnfDuoyFkfMB8GA1UdIwQYMBaAFPZVL6yjE3ELxvaUwO4rle791NwaMA0GCSqG
SIb3DQEBCwUAA4IBAQAgdhJ03TomypDCuHuceuWzEiwkNWnxnNwCI6hI8nYaF0nQ
RYuelRPfCxqxva1HTCPM6fyqJAYIPS4Kd/aR4LWGQipdO6J5XGP87m8vabyfRTkX
UVzP6VUIlVjsJY10dqDH/+lJMenxTyyf2qPp4CzR3SPx/9GfjB/KRM/3Dlg7E7Zp
xzlrtyE7cUTcpE8Eh4IEtu9KNIcFepIILIvzkN7mqda+22GCXX+JQKPdeKJ5S3HX
lYcAMu+Ngai6F+F9ckx/YInMPJl5lQgKIrqceEKmS3W88Wu1SatqnIFdtHOjy8fs
csgIASk+DRmL2URR/bXvrkjUL3vrXZCr9qvDXyDo
-----END CERTIFICATE-----
