Certificate:
    Data:
        Version: 3 (0x2)
        Serial Number: 305419903 (0x1234567f)
        Signature Algorithm: sha256WithRSAEncryption
        Issuer: CN=SRK3_sha256_2048_65537_v3_ca
        Validity
            Not Before: Nov 14 13:05:55 2024 GMT
            Not After : Nov 13 13:05:55 2029 GMT
        Subject: CN=CSF3_1_sha256_2048_65537_v3_usr
        Subject Public Key Info:
            Public Key Algorithm: rsaEncryption
                RSA Public-Key: (2048 bit)
                Modulus:
                    00:e9:48:be:1e:1f:71:2b:56:bb:12:e6:b3:5e:d8:
                    5d:24:f7:5d:6d:9a:8a:07:bb:64:28:86:a5:31:13:
                    f1:eb:f1:23:5f:6e:dd:88:ff:23:5a:48:18:c9:93:
                    ac:ed:3d:40:74:d5:20:76:27:f8:c3:81:4f:5f:b4:
                    f1:51:8f:17:97:30:49:6d:1a:89:74:a5:f3:bb:3d:
                    d5:bb:48:ab:0c:5c:cf:22:3c:b4:4a:f9:f2:ca:9b:
                    4a:13:d5:d9:89:7b:82:19:86:e0:94:ce:a0:60:47:
                    75:dd:9c:ce:3f:c9:6f:ba:e1:79:4c:e9:6f:e1:9b:
                    8b:cd:3c:5c:19:8c:e7:f6:58:85:a0:6e:68:7c:ff:
                    7a:7e:59:2e:f5:02:b9:2c:ba:1c:2f:a8:89:86:6b:
                    24:10:3c:f2:61:d1:3b:e5:8f:2c:72:40:67:a8:c3:
                    ac:59:ff:cc:d2:ad:c5:82:68:9c:ff:ff:4d:2a:7c:
                    6f:a6:24:00:07:9d:3b:a3:9f:ec:60:3b:d0:b2:9e:
                    f4:30:53:ba:dc:aa:26:45:de:cd:d5:4f:56:b8:3d:
                    14:ba:ce:e4:ee:6d:fc:1b:78:cd:f7:fb:62:91:d2:
                    37:03:e3:8d:53:e3:b8:d8:44:45:b5:b2:e4:80:0a:
                    1e:39:0f:06:cf:0f:04:5d:8c:d4:bf:8a:73:27:57:
                    6f:eb
                Exponent: 65537 (0x10001)
        X509v3 extensions:
            X509v3 Basic Constraints: 
                CA:FALSE
            Netscape Comment: 
                OpenSSL Generated Certificate
            X509v3 Subject Key Identifier: 
                8F:E5:7B:16:DC:6A:2B:72:23:3F:D1:B6:0D:C5:84:1E:52:CE:A9:D0
            X509v3 Authority Key Identifier: 
                keyid:90:97:52:A1:67:9C:AD:24:CB:95:4D:11:6B:45:02:72:33:33:80:9E

    Signature Algorithm: sha256WithRSAEncryption
         24:30:5d:78:2d:0c:39:87:57:3a:86:cf:74:dc:a7:2c:32:d6:
         65:6a:ef:c0:f0:d6:8e:8e:be:e0:ea:3d:78:b3:b1:a4:08:b5:
         43:0e:55:30:a7:49:ca:d3:50:70:db:7e:f9:2e:67:41:c4:52:
         d7:23:c8:0f:d4:f6:99:50:cb:75:51:b3:c2:3c:eb:97:1d:b9:
         71:f4:18:ee:78:78:b9:f5:b4:13:f0:a7:39:ab:e6:37:d2:52:
         f3:20:7a:f4:bd:5f:49:af:38:20:ea:96:26:19:55:0d:0b:82:
         24:42:94:82:ab:6b:84:60:ff:f9:8f:04:8d:84:34:45:43:5b:
         d4:6c:0c:0f:e9:09:d6:aa:69:04:c8:a2:38:92:d4:6c:22:29:
         ae:b7:f3:ed:7a:a5:fa:a5:77:be:ec:9b:55:73:ee:b6:0d:05:
         46:69:21:d6:e9:8c:5f:e0:0c:aa:9c:e7:e8:4f:51:74:82:71:
         dc:aa:1a:0a:a8:8e:d3:23:db:2f:b4:47:a1:07:34:10:ac:5f:
         36:b3:fe:6a:1e:49:f1:b6:21:b9:2e:3c:85:63:dd:dc:8b:e5:
         ec:97:72:3a:86:f0:33:7c:a8:44:0e:77:fb:32:b9:fc:78:5a:
         d5:41:28:17:c5:f6:ef:33:b8:25:7c:c6:61:78:42:1b:f5:0b:
         08:01:52:d1
-----BEGIN CERTIFICATE-----
MIIDSjCCAjKgAwIBAgIEEjRWfzANBgkqhkiG9w0BAQsFADAnMSUwIwYDVQQDDBxT
UkszX3NoYTI1Nl8yMDQ4XzY1NTM3X3YzX2NhMB4XDTI0MTExNDEzMDU1NVoXDTI5
MTExMzEzMDU1NVowKjEoMCYGA1UEAwwfQ1NGM18xX3NoYTI1Nl8yMDQ4XzY1NTM3
X3YzX3VzcjCCASIwDQYJKoZIhvcNAQEBBQADggEPADCCAQoCggEBAOlIvh4fcStW
uxLms17YXST3XW2aige7ZCiGpTET8evxI19u3Yj/I1pIGMmTrO09QHTVIHYn+MOB
T1+08VGPF5cwSW0aiXSl87s91btIqwxczyI8tEr58sqbShPV2Yl7ghmG4JTOoGBH
dd2czj/Jb7rheUzpb+Gbi808XBmM5/ZYhaBuaHz/en5ZLvUCuSy6HC+oiYZrJBA8
8mHRO+WPLHJAZ6jDrFn/zNKtxYJonP//TSp8b6YkAAedO6Of7GA70LKe9DBTutyq
JkXezdVPVrg9FLrO5O5t/Bt4zff7YpHSNwPjjVPjuNhERbWy5IAKHjkPBs8PBF2M
1L+KcydXb+sCAwEAAaN7MHkwCQYDVR0TBAIwADAsBglghkgBhvhCAQ0EHxYdT3Bl
blNTTCBHZW5lcmF0ZWQgQ2VydGlmaWNhdGUwHQYDVR0OBBYEFI/lexbcaityIz/R
tg3FhB5SzqnQMB8GA1UdIwQYMBaAFJCXUqFnnK0ky5VNEWtFAnIzM4CeMA0GCSqG
SIb3DQEBCwUAA4IBAQAkMF14LQw5h1c6hs903KcsMtZlau/A8NaOjr7g6j14s7Gk
CLVDDlUwp0nK01Bw2375LmdBxFLXI8gP1PaZUMt1UbPCPOuXHblx9BjueHi59bQT
8Kc5q+Y30lLzIHr0vV9Jrzgg6pYmGVUNC4IkQpSCq2uEYP/5jwSNhDRFQ1vUbAwP
6QnWqmkEyKI4ktRsIimut/PteqX6pXe+7JtVc+62DQVGaSHW6Yxf4AyqnOfoT1F0
gnHcqhoKqI7TI9svtEehBzQQrF82s/5qHknxtiG5LjyFY93ci+Xsl3I6hvAzfKhE
Dnf7Mrn8eFrVQSgXxfbvM7glfMZheEIb9QsIAVLR
-----END CERTIFICATE-----
