Certificate:
    Data:
        Version: 3 (0x2)
        Serial Number: 305419906 (0x12345682)
        Signature Algorithm: sha256WithRSAEncryption
        Issuer: CN=SRK4_sha256_2048_65537_v3_ca
        Validity
            Not Before: Nov 14 13:05:55 2024 GMT
            Not After : Nov 13 13:05:55 2029 GMT
        Subject: CN=CSF4_1_sha256_2048_65537_v3_usr
        Subject Public Key Info:
            Public Key Algorithm: rsaEncryption
                RSA Public-Key: (2048 bit)
                Modulus:
                    00:c5:1e:8c:04:cf:8f:d2:11:6f:a6:f8:a0:21:f1:
                    ce:03:85:e3:66:50:e0:c0:24:3e:e9:ea:ed:9a:d7:
                    de:b6:fb:aa:05:26:2e:28:07:1d:01:61:6a:e5:bc:
                    c1:9a:b8:40:9d:db:17:95:2f:7a:f9:ac:3e:82:a9:
                    1f:f4:bf:3d:bc:c2:d2:ad:3d:91:38:4f:bd:b1:c4:
                    86:2f:a9:d3:88:d0:de:7d:ed:2a:0b:bb:3d:95:ac:
                    9a:65:3c:4d:62:d1:ac:3c:8a:10:79:db:a7:a4:b0:
                    3f:00:6c:87:14:e4:5f:f1:44:1b:92:11:b6:0b:d5:
                    2d:23:1f:c9:41:a5:9c:90:45:fe:74:3c:5a:67:84:
                    1a:2b:0e:5f:c9:f6:e9:e7:35:35:8d:5c:84:a9:d7:
                    a3:51:1f:49:85:2e:7e:b9:e3:a1:56:91:24:e9:56:
                    5c:6e:65:11:ed:84:fc:71:0b:58:a1:89:60:48:86:
                    9e:e2:dd:71:ce:8f:a6:63:33:fb:97:b8:bd:c6:48:
                    f5:3e:5a:42:3c:13:b1:c1:0d:cf:0d:2b:2e:8d:2a:
                    e3:1c:3f:50:ad:57:f5:63:3b:02:90:71:81:ff:30:
                    c4:1e:10:37:60:fd:8f:9e:33:b8:11:29:23:73:1f:
                    05:6b:ce:69:ba:bc:bf:a0:f3:23:6d:76:60:8e:b4:
                    dd:ab
                Exponent: 65537 (0x10001)
        X509v3 extensions:
            X509v3 Basic Constraints: 
                CA:FALSE
            Netscape Comment: 
                OpenSSL Generated Certificate
            X509v3 Subject Key Identifier: 
                37:14:8F:3D:72:2E:80:A7:55:64:C5:38:86:8B:5B:42:5E:54:CF:1B
            X509v3 Authority Key Identifier: 
                keyid:4E:47:77:8E:A2:C9:53:D9:B8:63:C5:1C:EF:12:73:91:FB:5E:44:00

    Signature Algorithm: sha256WithRSAEncryption
         2c:1e:45:0e:9c:a5:9a:39:d5:30:46:7e:7f:97:92:fb:92:2f:
         e7:78:11:93:51:ae:e8:a6:37:c7:4d:a1:07:71:97:fd:19:63:
         c0:60:ce:8f:c0:2d:e9:54:44:35:9b:69:11:fe:7c:d1:2f:46:
         f3:0a:fe:3b:e2:16:1e:00:4f:68:bd:0d:22:4d:6a:4a:65:c7:
         e0:1a:f6:d2:8f:05:cb:cd:06:25:6a:6c:04:8a:44:a0:f8:60:
         13:84:c0:72:31:3f:58:ac:68:6e:fe:23:59:2f:3f:45:5a:34:
         42:74:8a:0a:56:c6:28:57:dd:b5:58:45:69:76:52:19:cf:82:
         7f:ab:18:af:10:11:6f:82:ad:17:98:af:61:15:69:e1:13:79:
         10:16:78:56:db:47:b2:4c:70:b2:55:6c:6f:57:46:e7:48:64:
         dc:61:f9:64:26:e6:a1:fc:7a:1d:3f:05:c2:24:ec:b1:2d:a4:
         be:7c:f9:7d:c6:1a:fe:83:d5:53:27:d5:e2:d7:a2:3a:57:e0:
         55:12:59:c2:77:6a:d2:3e:d8:2a:13:5b:7e:e5:96:df:34:e7:
         1e:51:43:f2:88:68:1c:8f:45:16:eb:8b:96:93:dc:9b:5e:a1:
         09:06:d6:5d:97:92:17:c8:b9:38:39:89:a7:94:7c:78:2d:bd:
         8e:60:81:59
-----BEGIN CERTIFICATE-----
MIIDSjCCAjKgAwIBAgIEEjRWgjANBgkqhkiG9w0BAQsFADAnMSUwIwYDVQQDDBxT
Uks0X3NoYTI1Nl8yMDQ4XzY1NTM3X3YzX2NhMB4XDTI0MTExNDEzMDU1NVoXDTI5
MTExMzEzMDU1NVowKjEoMCYGA1UEAwwfQ1NGNF8xX3NoYTI1Nl8yMDQ4XzY1NTM3
X3YzX3VzcjCCASIwDQYJKoZIhvcNAQEBBQADggEPADCCAQoCggEBAMUejATPj9IR
b6b4oCHxzgOF42ZQ4MAkPunq7ZrX3rb7qgUmLigHHQFhauW8wZq4QJ3bF5Uvevms
PoKpH/S/PbzC0q09kThPvbHEhi+p04jQ3n3tKgu7PZWsmmU8TWLRrDyKEHnbp6Sw
PwBshxTkX/FEG5IRtgvVLSMfyUGlnJBF/nQ8WmeEGisOX8n26ec1NY1chKnXo1Ef
SYUufrnjoVaRJOlWXG5lEe2E/HELWKGJYEiGnuLdcc6PpmMz+5e4vcZI9T5aQjwT
scENzw0rLo0q4xw/UK1X9WM7ApBxgf8wxB4QN2D9j54zuBEpI3MfBWvOabq8v6Dz
I212YI603asCAwEAAaN7MHkwCQYDVR0TBAIwADAsBglghkgBhvhCAQ0EHxYdT3Bl
blNTTCBHZW5lcmF0ZWQgQ2VydGlmaWNhdGUwHQYDVR0OBBYEFDcUjz1yLoCnVWTF
OIaLW0JeVM8bMB8GA1UdIwQYMBaAFE5Hd46iyVPZuGPFHO8Sc5H7XkQAMA0GCSqG
SIb3DQEBCwUAA4IBAQAsHkUOnKWaOdUwRn5/l5L7ki/neBGTUa7opjfHTaEHcZf9
GWPAYM6PwC3pVEQ1m2kR/nzRL0bzCv474hYeAE9ovQ0iTWpKZcfgGvbSjwXLzQYl
amwEikSg+GAThMByMT9YrGhu/iNZLz9FWjRCdIoKVsYoV921WEVpdlIZz4J/qxiv
EBFvgq0XmK9hFWnhE3kQFnhW20eyTHCyVWxvV0bnSGTcYflkJuah/HodPwXCJOyx
LaS+fPl9xhr+g9VTJ9Xi16I6V+BVElnCd2rSPtgqE1t+5ZbfNOceUUPyiGgcj0UW
64uWk9ybXqEJBtZdl5IXyLk4OYmnlHx4Lb2OYIFZ
-----END CERTIFICATE-----
