Certificate:
    Data:
        Version: 3 (0x2)
        Serial Number: 305419901 (0x1234567d)
        Signature Algorithm: sha256WithRSAEncryption
        Issuer: CN=SRK2_sha256_2048_65537_v3_ca
        Validity
            Not Before: Nov 14 13:05:54 2024 GMT
            Not After : Nov 13 13:05:54 2029 GMT
        Subject: CN=IMG2_1_sha256_2048_65537_v3_usr
        Subject Public Key Info:
            Public Key Algorithm: rsaEncryption
                RSA Public-Key: (2048 bit)
                Modulus:
                    00:b4:0f:40:ab:7f:6d:44:3e:1d:64:8d:fb:06:51:
                    c9:2a:c5:54:9d:6c:36:18:4d:df:5b:45:6f:80:0f:
                    3e:7a:43:b8:db:f7:80:e3:5e:38:b3:90:93:bb:ac:
                    df:ce:f1:3f:0c:71:a4:54:a0:54:a4:d3:eb:65:39:
                    8d:ac:5d:af:f0:f0:23:df:a4:b5:d6:b1:52:71:80:
                    14:54:8f:6a:d6:83:75:69:59:42:e1:7f:2b:d3:25:
                    ca:6f:39:ed:6b:c9:ab:74:2a:9e:26:6e:b3:7e:ac:
                    f6:de:10:78:ab:d5:22:68:55:8c:39:32:fa:fc:56:
                    08:86:92:2c:69:01:b1:8d:34:6b:c9:13:1e:37:29:
                    81:bf:bb:53:1e:44:63:5a:d9:cb:98:ef:43:df:fc:
                    08:09:e7:1d:89:2a:68:c0:02:af:33:30:80:2c:54:
                    22:97:ba:ce:ad:ac:00:e5:e3:80:f5:ca:e9:6c:8e:
                    6a:1d:08:f3:ac:8d:b0:82:de:bc:96:44:ad:67:d5:
                    ce:48:ea:04:6a:eb:6e:fe:66:98:0d:b2:ee:15:6f:
                    c6:fa:73:8b:3a:6f:8b:15:b6:f4:d1:5d:be:21:98:
                    97:8c:2a:ba:3b:2f:df:1b:95:b9:a8:08:5f:2f:53:
                    4f:cd:dd:0e:b1:e8:2f:d2:87:b5:62:10:e0:85:9d:
                    95:67
                Exponent: 65537 (0x10001)
        X509v3 extensions:
            X509v3 Basic Constraints: 
                CA:FALSE
            Netscape Comment: 
                OpenSSL Generated Certificate
            X509v3 Subject Key Identifier: 
                2C:CE:C1:72:55:C1:8F:D6:83:AB:92:16:66:EA:F1:53:6B:5A:12:0D
            X509v3 Authority Key Identifier: 
                keyid:F6:55:2F:AC:A3:13:71:0B:C6:F6:94:C0:EE:2B:95:EE:FD:D4:DC:1A

    Signature Algorithm: sha256WithRSAEncryption
         6f:0d:df:d9:65:04:0b:6c:6a:7a:2c:16:77:d0:11:7b:7c:bf:
         5d:d2:02:83:aa:6d:52:e5:23:1d:7b:65:93:51:41:39:50:36:
         05:68:0a:cd:1b:53:5e:b4:ea:54:71:5c:84:01:65:4c:da:31:
         80:9d:1d:3f:8f:ca:a5:78:2d:e3:3a:db:14:de:57:89:d8:41:
         19:77:7e:41:69:93:d9:20:b1:17:60:0e:43:a3:48:2b:57:b4:
         ed:a2:2b:32:82:50:23:df:fe:62:b9:d3:e5:3d:89:b7:f9:cc:
         7b:7c:68:36:c7:86:5f:c4:c9:26:a5:63:e5:d8:b8:24:c3:14:
         52:e5:15:62:4e:ce:92:86:0e:dc:f5:1a:9e:4e:83:2c:35:7c:
         ad:8d:2d:ca:99:28:32:dc:ba:25:a3:0a:e1:d9:e8:1c:37:88:
         e6:dc:70:9e:db:48:fb:53:8b:08:d8:b8:dc:56:fd:96:a9:ee:
         55:5c:53:a0:62:9c:c7:f2:70:40:6c:58:c0:b4:77:c2:82:4b:
         2a:1f:fc:c0:81:2b:7f:da:8b:b0:f8:26:12:85:54:ad:05:cc:
         01:40:24:f1:d1:d1:7e:7a:84:95:03:28:5f:64:2f:03:92:a6:
         11:97:e5:d3:d0:45:7b:15:75:76:7f:ba:95:13:fb:26:d6:9c:
         1d:e2:17:61
-----BEGIN CERTIFICATE-----
MIIDSjCCAjKgAwIBAgIEEjRWfTANBgkqhkiG9w0BAQsFADAnMSUwIwYDVQQDDBxT
UksyX3NoYTI1Nl8yMDQ4XzY1NTM3X3YzX2NhMB4XDTI0MTExNDEzMDU1NFoXDTI5
MTExMzEzMDU1NFowKjEoMCYGA1UEAwwfSU1HMl8xX3NoYTI1Nl8yMDQ4XzY1NTM3
X3YzX3VzcjCCASIwDQYJKoZIhvcNAQEBBQADggEPADCCAQoCggEBALQPQKt/bUQ+
HWSN+wZRySrFVJ1sNhhN31tFb4APPnpDuNv3gONeOLOQk7us387xPwxxpFSgVKTT
62U5jaxdr/DwI9+ktdaxUnGAFFSPataDdWlZQuF/K9Mlym857WvJq3QqniZus36s
9t4QeKvVImhVjDky+vxWCIaSLGkBsY00a8kTHjcpgb+7Ux5EY1rZy5jvQ9/8CAnn
HYkqaMACrzMwgCxUIpe6zq2sAOXjgPXK6WyOah0I86yNsILevJZErWfVzkjqBGrr
bv5mmA2y7hVvxvpzizpvixW29NFdviGYl4wqujsv3xuVuagIXy9TT83dDrHoL9KH
tWIQ4IWdlWcCAwEAAaN7MHkwCQYDVR0TBAIwADAsBglghkgBhvhCAQ0EHxYdT3Bl
blNTTCBHZW5lcmF0ZWQgQ2VydGlmaWNhdGUwHQYDVR0OBBYEFCzOwXJVwY/Wg6uS
Fmbq8VNrWhINMB8GA1UdIwQYMBaAFPZVL6yjE3ELxvaUwO4rle791NwaMA0GCSqG
SIb3DQEBCwUAA4IBAQBvDd/ZZQQLbGp6LBZ30BF7fL9d0gKDqm1S5SMde2WTUUE5
UDYFaArNG1NetOpUcVyEAWVM2jGAnR0/j8qleC3jOtsU3leJ2EEZd35BaZPZILEX
YA5Do0grV7TtoisyglAj3/5iudPlPYm3+cx7fGg2x4ZfxMkmpWPl2LgkwxRS5RVi
Ts6Shg7c9RqeToMsNXytjS3KmSgy3Lolowrh2egcN4jm3HCe20j7U4sI2LjcVv2W
qe5VXFOgYpzH8nBAbFjAtHfCgksqH/zAgSt/2ouw+CYShVStBcwBQCTx0dF+eoSV
AyhfZC8DkqYRl+XT0EV7FXV2f7qVE/sm1pwd4hdh
-----END CERTIFICATE-----
