Certificate:
    Data:
        Version: 3 (0x2)
        Serial Number: 305419907 (0x12345683)
        Signature Algorithm: sha256WithRSAEncryption
        Issuer: CN=SRK4_sha256_2048_65537_v3_ca
        Validity
            Not Before: Nov 14 13:05:55 2024 GMT
            Not After : Nov 13 13:05:55 2029 GMT
        Subject: CN=IMG4_1_sha256_2048_65537_v3_usr
        Subject Public Key Info:
            Public Key Algorithm: rsaEncryption
                RSA Public-Key: (2048 bit)
                Modulus:
                    00:bb:db:b5:3b:0e:94:56:b5:1b:0b:15:e3:53:47:
                    13:9b:3c:ca:35:dc:e7:cd:2d:cf:78:3e:26:c3:c3:
                    6e:7b:98:1a:8d:22:09:b3:13:01:88:20:36:59:c7:
                    0f:76:27:f0:56:06:64:fe:72:2f:a6:86:f3:9f:f8:
                    ff:bf:f1:a3:4a:40:11:79:74:a0:f3:72:a0:55:97:
                    07:d4:52:ee:11:a6:2c:e8:39:26:91:4d:33:fb:1a:
                    c6:56:71:b3:05:2c:41:4b:28:24:53:36:c1:28:e5:
                    74:20:66:b7:96:db:8c:6e:03:b1:70:bb:9f:ce:3a:
                    9b:44:a9:29:82:d0:4e:63:75:f6:11:06:33:3f:10:
                    2f:45:b9:13:53:00:af:a8:d2:9c:0b:ae:aa:99:69:
                    90:15:d1:1d:7f:94:db:2e:30:d9:42:56:16:e2:83:
                    87:c5:72:05:59:bd:b0:40:c9:b6:24:08:9e:3c:30:
                    74:e7:68:62:14:7e:33:c0:c7:e0:57:dc:f7:d8:d7:
                    fc:34:c4:1f:48:ea:3f:2e:30:d2:55:66:ae:22:b5:
                    20:c3:60:3c:8c:0f:e9:b7:14:35:43:06:03:0a:bd:
                    3f:75:ff:2a:5e:44:d0:37:32:52:1e:d9:b9:6d:df:
                    c2:3d:2b:d8:f2:a9:e7:29:f0:85:7b:94:9b:53:a2:
                    af:73
                Exponent: 65537 (0x10001)
        X509v3 extensions:
            X509v3 Basic Constraints: 
                CA:FALSE
            Netscape Comment: 
                OpenSSL Generated Certificate
            X509v3 Subject Key Identifier: 
                49:CD:45:F4:46:7E:1B:09:DC:3A:80:A6:8E:A6:5B:5D:E4:98:25:F7
            X509v3 Authority Key Identifier: 
                keyid:4E:47:77:8E:A2:C9:53:D9:B8:63:C5:1C:EF:12:73:91:FB:5E:44:00

    Signature Algorithm: sha256WithRSAEncryption
         ca:0e:53:87:0c:81:63:b2:d5:ae:41:01:09:10:0f:db:8f:5f:
         ae:cc:4d:7e:e2:1e:54:10:0a:25:98:ed:49:74:34:fe:d0:04:
         3d:39:5c:3f:9c:d0:dd:14:20:1a:92:ad:cc:95:78:cb:4d:2b:
         db:91:0b:cf:c6:97:0f:33:ad:78:8b:85:0d:9f:5d:ed:b5:b0:
         0e:27:df:30:67:a0:ac:22:2b:ce:03:b1:69:11:f3:d6:b4:07:
         c8:77:77:54:c3:84:3e:6e:9c:18:81:cb:01:f9:9a:ad:22:fc:
         ab:40:e2:cb:c4:63:01:93:e9:42:1f:b6:bd:ae:d6:61:94:e1:
         10:8f:6c:8e:6b:3e:66:04:cf:fb:2e:5b:73:67:46:03:08:0e:
         23:57:4a:89:45:3c:59:e2:29:72:9d:30:f9:70:2c:fb:ac:2a:
         70:40:44:7a:8b:37:4f:80:4b:67:a5:22:7c:14:70:0d:a6:e6:
         a6:94:f7:a7:cf:92:11:02:eb:bd:88:7b:18:10:e0:69:ab:55:
         e8:bf:cb:05:ee:4d:30:11:66:73:e0:bf:e6:e0:bb:e7:14:a4:
         8e:c1:e7:1d:63:15:42:f6:60:2b:cb:1b:67:e6:5b:8b:2d:30:
         e9:82:cc:a9:d1:28:e4:45:10:aa:e4:f6:91:2f:88:26:0d:bb:
         40:41:44:73
-----BEGIN CERTIFICATE-----
MIIDSjCCAjKgAwIBAgIEEjRWgzANBgkqhkiG9w0BAQsFADAnMSUwIwYDVQQDDBxT
Uks0X3NoYTI1Nl8yMDQ4XzY1NTM3X3YzX2NhMB4XDTI0MTExNDEzMDU1NVoXDTI5
MTExMzEzMDU1NVowKjEoMCYGA1UEAwwfSU1HNF8xX3NoYTI1Nl8yMDQ4XzY1NTM3
X3YzX3VzcjCCASIwDQYJKoZIhvcNAQEBBQADggEPADCCAQoCggEBALvbtTsOlFa1
GwsV41NHE5s8yjXc580tz3g+JsPDbnuYGo0iCbMTAYggNlnHD3Yn8FYGZP5yL6aG
85/4/7/xo0pAEXl0oPNyoFWXB9RS7hGmLOg5JpFNM/saxlZxswUsQUsoJFM2wSjl
dCBmt5bbjG4DsXC7n846m0SpKYLQTmN19hEGMz8QL0W5E1MAr6jSnAuuqplpkBXR
HX+U2y4w2UJWFuKDh8VyBVm9sEDJtiQInjwwdOdoYhR+M8DH4Ffc99jX/DTEH0jq
Py4w0lVmriK1IMNgPIwP6bcUNUMGAwq9P3X/Kl5E0DcyUh7ZuW3fwj0r2PKp5ynw
hXuUm1Oir3MCAwEAAaN7MHkwCQYDVR0TBAIwADAsBglghkgBhvhCAQ0EHxYdT3Bl
blNTTCBHZW5lcmF0ZWQgQ2VydGlmaWNhdGUwHQYDVR0OBBYEFEnNRfRGfhsJ3DqA
po6mW13kmCX3MB8GA1UdIwQYMBaAFE5Hd46iyVPZuGPFHO8Sc5H7XkQAMA0GCSqG
SIb3DQEBCwUAA4IBAQDKDlOHDIFjstWuQQEJEA/bj1+uzE1+4h5UEAolmO1JdDT+
0AQ9OVw/nNDdFCAakq3MlXjLTSvbkQvPxpcPM614i4UNn13ttbAOJ98wZ6CsIivO
A7FpEfPWtAfId3dUw4Q+bpwYgcsB+ZqtIvyrQOLLxGMBk+lCH7a9rtZhlOEQj2yO
az5mBM/7LltzZ0YDCA4jV0qJRTxZ4ilynTD5cCz7rCpwQER6izdPgEtnpSJ8FHAN
puamlPenz5IRAuu9iHsYEOBpq1Xov8sF7k0wEWZz4L/m4LvnFKSOwecdYxVC9mAr
yxtn5luLLTDpgsyp0SjkRRCq5PaRL4gmDbtAQURz
-----END CERTIFICATE-----
