Certificate:
    Data:
        Version: 3 (0x2)
        Serial Number: 305419896 (0x12345678)
        Signature Algorithm: sha256WithRSAEncryption
        Issuer: CN=CA1_sha256_2048_65537_v3_ca
        Validity
            Not Before: Nov 14 13:05:54 2024 GMT
            Not After : Nov 13 13:05:54 2029 GMT
        Subject: CN=SRK1_sha256_2048_65537_v3_ca
        Subject Public Key Info:
            Public Key Algorithm: rsaEncryption
                RSA Public-Key: (2048 bit)
                Modulus:
                    00:af:5f:21:c0:9e:3e:06:1c:da:ca:a9:4b:54:d7:
                    29:fd:30:90:36:78:e0:67:53:c0:7b:a8:a2:cc:6b:
                    05:c0:32:52:63:b8:0e:45:7a:57:c8:91:e5:63:60:
                    39:4d:23:9a:3d:73:51:45:37:22:ae:ce:65:5d:0f:
                    2d:f0:d0:22:c1:4a:4f:a5:01:c3:15:22:ac:55:e6:
                    66:40:45:91:dd:05:78:89:ca:82:c6:5f:f3:31:38:
                    f1:16:4b:e3:ea:20:61:ff:21:6a:cb:c6:78:a4:d6:
                    28:c1:85:65:2f:2b:be:1d:8e:dd:a2:fe:85:bf:8a:
                    4e:e7:a1:12:ea:f6:99:3b:f7:20:7e:e7:a3:b2:33:
                    a2:32:cb:0b:c2:d8:2a:c1:86:f9:63:12:ad:ed:2e:
                    f2:21:ca:0e:81:21:f7:f7:c1:c8:36:6d:f5:f3:1e:
                    3f:d9:c9:57:b5:81:42:0d:47:7e:d3:20:98:d0:0f:
                    6f:a3:18:e8:34:01:5c:d1:79:9a:dc:dd:fc:24:9e:
                    af:a1:8f:54:ff:cd:96:d0:47:06:41:89:d0:bc:e2:
                    0d:b2:91:f7:b5:ba:50:a2:b1:6f:70:22:7e:0a:8d:
                    ef:35:a0:3b:06:47:22:1e:de:a6:4c:3f:20:76:5f:
                    b0:36:8b:37:76:11:35:fe:c2:68:69:49:1d:1d:7e:
                    0b:01
                Exponent: 65537 (0x10001)
        X509v3 extensions:
            X509v3 Subject Key Identifier: 
                2C:3C:0A:A9:1F:45:5D:69:7C:72:DD:C1:5B:98:BF:B3:44:00:BA:1C
            X509v3 Authority Key Identifier: 
                keyid:92:64:AB:F0:AB:05:61:43:91:78:38:58:39:2F:7C:D4:29:13:B8:FB
                DirName:/CN=CA1_sha256_2048_65537_v3_ca
                serial:5A:0E:CF:69:45:65:7C:F4:6B:50:FD:33:75:56:4D:99:09:1C:CC:C1

            X509v3 Basic Constraints: critical
                CA:TRUE
            X509v3 Key Usage: 
                Certificate Sign
    Signature Algorithm: sha256WithRSAEncryption
         c2:01:fe:db:df:f3:5b:bc:01:07:90:c7:3d:fa:8e:f1:06:69:
         8f:3c:d2:57:23:a4:41:7e:37:d1:6a:3f:dc:2e:69:17:4c:66:
         f4:61:02:23:f2:20:40:bb:1b:9c:96:55:80:63:de:2e:d0:e4:
         78:bd:37:f9:87:6c:70:d4:51:c7:90:25:37:39:37:f3:7f:38:
         a1:39:43:e5:ff:f4:76:be:af:25:c3:f5:ba:5f:24:81:df:d1:
         97:79:c0:d5:ea:14:cc:04:dc:c9:f2:99:a7:33:b2:ce:03:4f:
         19:a4:9e:d1:a3:85:39:a0:a4:84:d9:db:df:d7:9b:bc:d5:0f:
         48:91:c3:a8:e2:5d:ec:ee:79:ea:bf:7c:04:3e:ec:44:91:14:
         80:de:1c:82:25:79:7b:64:7f:87:cd:f4:6a:89:df:5c:b4:05:
         5d:e4:13:06:20:d5:69:03:39:62:05:b9:2c:24:81:67:bf:04:
         02:e7:38:a7:6d:45:64:a8:92:d8:8b:99:95:5c:58:db:27:74:
         78:f7:bb:e1:11:1a:28:45:c4:aa:c2:8b:10:d3:26:fa:36:f6:
         b5:9b:14:39:d5:04:ad:d3:ac:30:41:44:98:98:60:22:cb:6b:
         9f:81:36:34:98:bd:7e:ae:2f:20:ad:35:b2:9d:58:6d:d5:77:
         1a:6c:fe:9c
-----BEGIN CERTIFICATE-----
MIIDbzCCAlegAwIBAgIEEjRWeDANBgkqhkiG9w0BAQsFADAmMSQwIgYDVQQDFBtD
QTFfc2hhMjU2XzIwNDhfNjU1MzdfdjNfY2EwHhcNMjQxMTE0MTMwNTU0WhcNMjkx
MTEzMTMwNTU0WjAnMSUwIwYDVQQDDBxTUksxX3NoYTI1Nl8yMDQ4XzY1NTM3X3Yz
X2NhMIIBIjANBgkqhkiG9w0BAQEFAAOCAQ8AMIIBCgKCAQEAr18hwJ4+BhzayqlL
VNcp/TCQNnjgZ1PAe6iizGsFwDJSY7gORXpXyJHlY2A5TSOaPXNRRTcirs5lXQ8t
8NAiwUpPpQHDFSKsVeZmQEWR3QV4icqCxl/zMTjxFkvj6iBh/yFqy8Z4pNYowYVl
Lyu+HY7dov6Fv4pO56ES6vaZO/cgfuejsjOiMssLwtgqwYb5YxKt7S7yIcoOgSH3
98HINm318x4/2clXtYFCDUd+0yCY0A9voxjoNAFc0Xma3N38JJ6voY9U/82W0EcG
QYnQvOINspH3tbpQorFvcCJ+Co3vNaA7BkciHt6mTD8gdl+wNos3dhE1/sJoaUkd
HX4LAQIDAQABo4GjMIGgMB0GA1UdDgQWBBQsPAqpH0VdaXxy3cFbmL+zRAC6HDBh
BgNVHSMEWjBYgBSSZKvwqwVhQ5F4OFg5L3zUKRO4+6EqpCgwJjEkMCIGA1UEAxQb
Q0ExX3NoYTI1Nl8yMDQ4XzY1NTM3X3YzX2NhghRaDs9pRWV89GtQ/TN1Vk2ZCRzM
wTAPBgNVHRMBAf8EBTADAQH/MAsGA1UdDwQEAwICBDANBgkqhkiG9w0BAQsFAAOC
AQEAwgH+29/zW7wBB5DHPfqO8QZpjzzSVyOkQX430Wo/3C5pF0xm9GECI/IgQLsb
nJZVgGPeLtDkeL03+YdscNRRx5AlNzk38384oTlD5f/0dr6vJcP1ul8kgd/Rl3nA
1eoUzATcyfKZpzOyzgNPGaSe0aOFOaCkhNnb39ebvNUPSJHDqOJd7O556r98BD7s
RJEUgN4cgiV5e2R/h830aonfXLQFXeQTBiDVaQM5YgW5LCSBZ78EAuc4p21FZKiS
2IuZlVxY2yd0ePe74REaKEXEqsKLENMm+jb2tZsUOdUErdOsMEFEmJhgIstrn4E2
NJi9fq4vIK01sp1YbdV3Gmz+nA==
-----END CERTIFICATE-----
