Certificate:
    Data:
        Version: 3 (0x2)
        Serial Number: 305419899 (0x1234567b)
        Signature Algorithm: sha256WithRSAEncryption
        Issuer: CN=CA1_sha256_2048_65537_v3_ca
        Validity
            Not Before: Nov 14 13:05:54 2024 GMT
            Not After : Nov 13 13:05:54 2029 GMT
        Subject: CN=SRK2_sha256_2048_65537_v3_ca
        Subject Public Key Info:
            Public Key Algorithm: rsaEncryption
                RSA Public-Key: (2048 bit)
                Modulus:
                    00:df:bc:a5:6f:23:6a:08:ae:0f:0c:59:99:d8:d3:
                    01:42:65:29:d3:9a:8f:9a:a1:f9:a9:34:93:ad:6e:
                    28:e8:c3:e8:80:b8:48:9d:3a:86:73:f5:c5:26:60:
                    12:92:1a:c2:ee:1a:00:7e:77:ee:20:fb:aa:45:61:
                    10:c6:b4:56:b5:d5:ba:07:69:85:a1:7b:fc:23:ab:
                    2c:67:0b:37:60:74:3b:aa:d2:a8:16:65:bd:6e:8e:
                    1f:7f:6e:39:7c:83:f4:5c:9d:89:cc:d3:c9:8a:eb:
                    e5:23:e4:c5:21:7e:fe:fa:ba:66:7d:bd:bc:f1:14:
                    bd:6f:b4:0c:37:c9:15:b4:94:64:77:02:fa:43:b5:
                    24:5a:45:07:03:28:00:75:cd:bc:f3:94:06:46:c5:
                    67:e2:46:2c:db:d0:41:a0:61:bf:6f:4b:76:1a:eb:
                    41:1a:30:90:ba:33:e9:71:7d:d4:52:27:cc:f4:78:
                    32:c2:60:97:97:e1:62:10:5d:75:95:f1:83:3f:4a:
                    38:36:54:c5:6d:0b:28:dc:40:03:3e:67:65:4a:6c:
                    ae:ce:45:7d:75:e4:0e:bd:ea:c5:cb:00:b1:65:3d:
                    53:de:5d:74:cb:c8:0a:73:85:87:cc:20:ee:f1:db:
                    dd:35:83:a8:0a:01:33:d9:a1:8e:cc:f1:b4:58:9d:
                    e5:11
                Exponent: 65537 (0x10001)
        X509v3 extensions:
            X509v3 Subject Key Identifier: 
                F6:55:2F:AC:A3:13:71:0B:C6:F6:94:C0:EE:2B:95:EE:FD:D4:DC:1A
            X509v3 Authority Key Identifier: 
                keyid:92:64:AB:F0:AB:05:61:43:91:78:38:58:39:2F:7C:D4:29:13:B8:FB
                DirName:/CN=CA1_sha256_2048_65537_v3_ca
                serial:5A:0E:CF:69:45:65:7C:F4:6B:50:FD:33:75:56:4D:99:09:1C:CC:C1

            X509v3 Basic Constraints: critical
                CA:TRUE
            X509v3 Key Usage: 
                Certificate Sign
    Signature Algorithm: sha256WithRSAEncryption
         3b:a0:41:f9:3f:b7:f5:03:77:65:f0:d4:0f:2a:bf:2e:d6:16:
         0e:fb:23:2c:c1:9e:86:95:42:af:66:de:7f:44:ed:57:67:14:
         f5:78:45:63:33:5f:a5:bd:59:3e:77:da:2b:d7:ae:3c:18:f3:
         fe:7b:55:e6:c6:47:c8:17:d9:f1:72:03:94:20:dd:a9:63:26:
         09:ff:1a:ca:50:1c:1e:c3:ca:c2:82:27:80:7b:1c:b9:76:c2:
         23:93:cc:6f:ce:48:3a:7b:04:83:14:87:4c:87:f2:40:bc:d6:
         aa:6b:63:cc:1b:b9:9b:07:56:43:85:23:d0:2c:68:4b:ef:d5:
         5b:95:a5:17:50:11:13:65:58:7a:3d:7e:3c:c1:55:a2:ab:82:
         b4:7e:04:45:44:80:7d:bb:2f:db:9a:42:fa:21:ff:78:e2:df:
         0b:e8:ea:d3:6e:f4:96:2a:d8:7c:23:5e:37:f5:5a:07:de:a4:
         76:86:8f:80:8f:ee:77:9d:83:fb:ca:f2:b6:0d:6e:61:b1:37:
         d4:bb:b7:1f:84:41:29:dd:4b:3c:dd:73:cc:ff:75:41:43:fa:
         41:f6:48:de:5f:4a:bd:13:6b:73:05:03:c0:31:6e:22:be:25:
         47:bf:33:1b:33:b2:5a:5b:e3:ab:08:9e:09:7b:79:93:1e:da:
         9b:f9:a8:46
-----BEGIN CERTIFICATE-----
MIIDbzCCAlegAwIBAgIEEjRWezANBgkqhkiG9w0BAQsFADAmMSQwIgYDVQQDFBtD
QTFfc2hhMjU2XzIwNDhfNjU1MzdfdjNfY2EwHhcNMjQxMTE0MTMwNTU0WhcNMjkx
MTEzMTMwNTU0WjAnMSUwIwYDVQQDDBxTUksyX3NoYTI1Nl8yMDQ4XzY1NTM3X3Yz
X2NhMIIBIjANBgkqhkiG9w0BAQEFAAOCAQ8AMIIBCgKCAQEA37ylbyNqCK4PDFmZ
2NMBQmUp05qPmqH5qTSTrW4o6MPogLhInTqGc/XFJmASkhrC7hoAfnfuIPuqRWEQ
xrRWtdW6B2mFoXv8I6ssZws3YHQ7qtKoFmW9bo4ff245fIP0XJ2JzNPJiuvlI+TF
IX7++rpmfb288RS9b7QMN8kVtJRkdwL6Q7UkWkUHAygAdc2885QGRsVn4kYs29BB
oGG/b0t2GutBGjCQujPpcX3UUifM9HgywmCXl+FiEF11lfGDP0o4NlTFbQso3EAD
PmdlSmyuzkV9deQOverFywCxZT1T3l10y8gKc4WHzCDu8dvdNYOoCgEz2aGOzPG0
WJ3lEQIDAQABo4GjMIGgMB0GA1UdDgQWBBT2VS+soxNxC8b2lMDuK5Xu/dTcGjBh
BgNVHSMEWjBYgBSSZKvwqwVhQ5F4OFg5L3zUKRO4+6EqpCgwJjEkMCIGA1UEAxQb
Q0ExX3NoYTI1Nl8yMDQ4XzY1NTM3X3YzX2NhghRaDs9pRWV89GtQ/TN1Vk2ZCRzM
wTAPBgNVHRMBAf8EBTADAQH/MAsGA1UdDwQEAwICBDANBgkqhkiG9w0BAQsFAAOC
AQEAO6BB+T+39QN3ZfDUDyq/LtYWDvsjLMGehpVCr2bef0TtV2cU9XhFYzNfpb1Z
PnfaK9euPBjz/ntV5sZHyBfZ8XIDlCDdqWMmCf8aylAcHsPKwoIngHscuXbCI5PM
b85IOnsEgxSHTIfyQLzWqmtjzBu5mwdWQ4Uj0CxoS+/VW5WlF1ARE2VYej1+PMFV
oquCtH4ERUSAfbsv25pC+iH/eOLfC+jq0270lirYfCNeN/VaB96kdoaPgI/ud52D
+8rytg1uYbE31Lu3H4RBKd1LPN1zzP91QUP6QfZI3l9KvRNrcwUDwDFuIr4lR78z
GzOyWlvjqwieCXt5kx7am/moRg==
-----END CERTIFICATE-----
