Certificate:
    Data:
        Version: 3 (0x2)
        Serial Number: 305419905 (0x12345681)
        Signature Algorithm: sha256WithRSAEncryption
        Issuer: CN=CA1_sha256_2048_65537_v3_ca
        Validity
            Not Before: Nov 14 13:05:55 2024 GMT
            Not After : Nov 13 13:05:55 2029 GMT
        Subject: CN=SRK4_sha256_2048_65537_v3_ca
        Subject Public Key Info:
            Public Key Algorithm: rsaEncryption
                RSA Public-Key: (2048 bit)
                Modulus:
                    00:d3:e3:7d:bc:1e:49:38:c4:cb:94:16:98:7c:6c:
                    29:d4:5c:b8:75:0d:a2:7a:0f:ac:30:68:7c:58:7e:
                    c4:44:c8:cf:ec:4e:5e:82:68:a5:ae:de:f6:7f:fb:
                    d3:bd:dc:f6:b8:f1:15:6f:c5:bd:20:83:64:2f:64:
                    1d:f2:8c:85:68:b1:59:1b:92:12:63:c1:88:db:14:
                    25:f9:b0:0a:1f:c5:db:26:80:4f:1f:b0:aa:d7:4f:
                    52:33:57:fd:07:c7:f1:74:c5:6c:31:0d:f6:62:27:
                    27:26:b6:d0:0a:cb:b7:2c:6b:32:f7:36:3c:23:de:
                    3a:1c:81:c2:65:18:27:6e:81:15:c6:e0:83:b5:48:
                    6d:87:c9:bf:dd:f5:22:3b:b0:62:92:e3:e5:5a:53:
                    79:56:99:af:bd:bf:3f:55:cc:34:ed:3d:99:19:15:
                    fe:90:d7:49:d9:8b:a6:39:05:2a:5a:2c:49:73:cd:
                    27:b8:23:fd:5f:af:06:8a:7a:04:9d:57:24:0f:36:
                    32:df:c7:2d:4d:e8:1d:5b:1a:f0:a4:ae:93:4b:c0:
                    79:fb:bc:20:2d:b4:65:21:c3:a5:52:7a:55:1d:eb:
                    59:c4:ca:ad:3d:f0:a1:ed:c5:59:ce:13:3a:ef:0a:
                    0c:90:35:e2:d6:42:e3:35:71:d9:48:f6:a7:fe:8b:
                    29:6b
                Exponent: 65537 (0x10001)
        X509v3 extensions:
            X509v3 Subject Key Identifier: 
                4E:47:77:8E:A2:C9:53:D9:B8:63:C5:1C:EF:12:73:91:FB:5E:44:00
            X509v3 Authority Key Identifier: 
                keyid:92:64:AB:F0:AB:05:61:43:91:78:38:58:39:2F:7C:D4:29:13:B8:FB
                DirName:/CN=CA1_sha256_2048_65537_v3_ca
                serial:5A:0E:CF:69:45:65:7C:F4:6B:50:FD:33:75:56:4D:99:09:1C:CC:C1

            X509v3 Basic Constraints: critical
                CA:TRUE
            X509v3 Key Usage: 
                Certificate Sign
    Signature Algorithm: sha256WithRSAEncryption
         49:0a:84:68:2f:22:d4:51:21:9f:59:ae:b4:4e:26:73:b3:34:
         6c:df:ec:95:60:ae:da:7c:9a:95:99:6a:8b:82:1d:a9:75:52:
         ef:39:eb:dc:d3:aa:a4:60:9a:f0:cb:36:2e:d9:a3:f4:64:68:
         4d:79:fe:8d:08:16:ed:2b:5b:f4:c7:be:c9:e2:c7:db:ba:09:
         b1:7e:aa:ad:e4:9c:73:2b:8e:a5:0f:d1:78:17:8a:54:e3:f7:
         f5:0b:06:36:39:31:9c:af:1a:fe:4a:53:15:28:8b:fb:d3:20:
         90:f6:de:a9:98:1a:50:80:60:21:5b:ba:9f:45:ed:03:73:dd:
         15:98:14:a9:81:36:25:0e:38:89:9d:ac:c2:7d:2f:1f:2a:85:
         bc:7e:d8:a7:a4:dd:0d:0e:98:d0:ee:96:0f:6a:32:7a:8a:72:
         21:dc:08:14:5c:f5:a2:dc:7c:12:f7:89:08:80:38:dd:9a:db:
         25:ce:64:e4:a5:00:63:e4:c1:67:07:d8:af:fe:a2:8a:89:a7:
         28:41:21:bc:d7:cf:e3:c6:ea:a5:ef:44:d1:19:4e:af:62:e2:
         12:ee:ef:9d:94:13:4a:14:4c:f8:c7:7b:81:4f:7c:8a:25:01:
         c5:9e:31:7e:60:ac:a0:20:be:65:34:d0:b2:a6:9d:63:cd:94:
         62:49:2c:9f
-----BEGIN CERTIFICATE-----
MIIDbzCCAlegAwIBAgIEEjRWgTANBgkqhkiG9w0BAQsFADAmMSQwIgYDVQQDFBtD
QTFfc2hhMjU2XzIwNDhfNjU1MzdfdjNfY2EwHhcNMjQxMTE0MTMwNTU1WhcNMjkx
MTEzMTMwNTU1WjAnMSUwIwYDVQQDDBxTUks0X3NoYTI1Nl8yMDQ4XzY1NTM3X3Yz
X2NhMIIBIjANBgkqhkiG9w0BAQEFAAOCAQ8AMIIBCgKCAQEA0+N9vB5JOMTLlBaY
fGwp1Fy4dQ2ieg+sMGh8WH7ERMjP7E5egmilrt72f/vTvdz2uPEVb8W9IINkL2Qd
8oyFaLFZG5ISY8GI2xQl+bAKH8XbJoBPH7Cq109SM1f9B8fxdMVsMQ32YicnJrbQ
Csu3LGsy9zY8I946HIHCZRgnboEVxuCDtUhth8m/3fUiO7BikuPlWlN5Vpmvvb8/
Vcw07T2ZGRX+kNdJ2YumOQUqWixJc80nuCP9X68GinoEnVckDzYy38ctTegdWxrw
pK6TS8B5+7wgLbRlIcOlUnpVHetZxMqtPfCh7cVZzhM67woMkDXi1kLjNXHZSPan
/ospawIDAQABo4GjMIGgMB0GA1UdDgQWBBROR3eOoslT2bhjxRzvEnOR+15EADBh
BgNVHSMEWjBYgBSSZKvwqwVhQ5F4OFg5L3zUKRO4+6EqpCgwJjEkMCIGA1UEAxQb
Q0ExX3NoYTI1Nl8yMDQ4XzY1NTM3X3YzX2NhghRaDs9pRWV89GtQ/TN1Vk2ZCRzM
wTAPBgNVHRMBAf8EBTADAQH/MAsGA1UdDwQEAwICBDANBgkqhkiG9w0BAQsFAAOC
AQEASQqEaC8i1FEhn1mutE4mc7M0bN/slWCu2nyalZlqi4IdqXVS7znr3NOqpGCa
8Ms2Ltmj9GRoTXn+jQgW7Stb9Me+yeLH27oJsX6qreSccyuOpQ/ReBeKVOP39QsG
NjkxnK8a/kpTFSiL+9MgkPbeqZgaUIBgIVu6n0XtA3PdFZgUqYE2JQ44iZ2swn0v
HyqFvH7Yp6TdDQ6Y0O6WD2oyeopyIdwIFFz1otx8EveJCIA43ZrbJc5k5KUAY+TB
ZwfYr/6iiomnKEEhvNfP48bqpe9E0RlOr2LiEu7vnZQTShRM+Md7gU98iiUBxZ4x
fmCsoCC+ZTTQsqadY82UYkksnw==
-----END CERTIFICATE-----
