Certificate:
    Data:
        Version: 3 (0x2)
        Serial Number: 305419897 (0x12345679)
        Signature Algorithm: sha256WithRSAEncryption
        Issuer: CN=SRK1_sha256_2048_65537_v3_ca
        Validity
            Not Before: Nov 14 13:05:54 2024 GMT
            Not After : Nov 13 13:05:54 2029 GMT
        Subject: CN=CSF1_1_sha256_2048_65537_v3_usr
        Subject Public Key Info:
            Public Key Algorithm: rsaEncryption
                RSA Public-Key: (2048 bit)
                Modulus:
                    00:cf:c5:72:c3:2b:da:e2:cb:13:44:b6:03:56:f6:
                    b5:f1:29:e8:1c:b0:60:e4:ea:02:ad:b2:c6:40:86:
                    7d:b8:16:4d:00:27:25:69:6b:a5:28:32:37:e0:dc:
                    bc:a8:b4:01:e7:c4:2c:82:37:76:33:27:93:aa:b5:
                    71:07:ed:aa:8a:16:46:87:93:ba:f7:55:e6:03:a3:
                    4e:d9:af:54:2d:a2:01:a1:8d:a7:42:dc:56:a0:ea:
                    51:32:66:64:73:60:17:12:d4:b6:c1:ef:e9:29:27:
                    bf:dc:ce:e3:94:10:ef:e9:d5:67:c9:8a:8b:66:a7:
                    71:6c:4c:47:a7:9a:ec:6a:20:87:ef:82:5f:8a:a7:
                    be:42:3e:57:65:ff:aa:be:a1:7c:77:d9:c8:88:08:
                    90:c5:c3:0c:62:16:a1:fe:66:4a:07:03:bc:40:35:
                    9e:5c:a5:6f:e7:1e:5e:a9:a9:d9:1f:fa:fb:44:b3:
                    87:77:ce:c7:9a:e2:48:c7:07:86:b8:14:16:04:b8:
                    37:6e:dc:49:23:71:fe:0f:b7:78:01:b4:92:5f:6e:
                    3d:c2:02:dc:55:11:79:d8:3c:ad:02:1b:0f:d6:dc:
                    4c:48:77:fa:cd:be:e0:25:17:dd:12:42:53:ca:e0:
                    fd:c6:81:71:6b:bd:9b:0f:4b:52:97:d2:21:cb:9e:
                    da:05
                Exponent: 65537 (0x10001)
        X509v3 extensions:
            X509v3 Basic Constraints: 
                CA:FALSE
            Netscape Comment: 
                OpenSSL Generated Certificate
            X509v3 Subject Key Identifier: 
                F0:35:EB:07:36:35:E7:F1:72:4D:A6:2C:A2:22:5C:64:4E:19:A8:DE
            X509v3 Authority Key Identifier: 
                keyid:2C:3C:0A:A9:1F:45:5D:69:7C:72:DD:C1:5B:98:BF:B3:44:00:BA:1C

    Signature Algorithm: sha256WithRSAEncryption
         32:c7:cd:55:26:34:7b:d8:b3:42:e0:40:16:17:c5:1a:2e:4c:
         ec:b9:23:0e:b6:19:bd:c2:80:0f:ed:62:20:04:62:2a:1b:67:
         69:b6:9e:48:c4:04:75:f5:fd:d7:5f:e0:e2:25:1a:95:2a:df:
         60:bc:52:58:c3:39:2d:bf:61:59:28:7f:55:0b:c7:37:75:98:
         50:cb:2d:6a:5e:0c:0d:17:b7:c3:64:73:67:85:f9:12:27:33:
         47:5e:42:ad:77:f6:43:08:34:8c:94:98:49:37:df:ae:57:13:
         9b:ac:6b:12:2b:1e:f5:f2:1d:4b:00:2a:1a:01:9b:26:5f:9e:
         72:52:1f:b7:b5:12:e9:48:7d:d7:bf:e2:31:d8:27:1b:c0:e7:
         50:30:7e:22:cd:f2:c3:bf:a6:50:17:16:34:64:21:1d:06:8b:
         fb:06:d0:03:34:47:d6:7e:54:d9:8a:26:ef:9a:16:c2:6a:70:
         df:1d:a2:1d:f1:a5:23:de:2d:7c:a6:d1:7b:82:43:7c:9a:b1:
         49:d0:f7:d2:da:40:48:02:c3:dc:35:66:d5:6e:a6:79:7a:f9:
         1b:86:b6:f2:41:40:b1:5d:05:64:50:b7:e7:08:ef:7a:84:48:
         89:e0:69:27:6b:bc:27:ad:98:45:93:8c:17:34:68:ad:97:8b:
         fc:70:b4:a5
-----BEGIN CERTIFICATE-----
MIIDSjCCAjKgAwIBAgIEEjRWeTANBgkqhkiG9w0BAQsFADAnMSUwIwYDVQQDDBxT
UksxX3NoYTI1Nl8yMDQ4XzY1NTM3X3YzX2NhMB4XDTI0MTExNDEzMDU1NFoXDTI5
MTExMzEzMDU1NFowKjEoMCYGA1UEAwwfQ1NGMV8xX3NoYTI1Nl8yMDQ4XzY1NTM3
X3YzX3VzcjCCASIwDQYJKoZIhvcNAQEBBQADggEPADCCAQoCggEBAM/FcsMr2uLL
E0S2A1b2tfEp6BywYOTqAq2yxkCGfbgWTQAnJWlrpSgyN+DcvKi0AefELII3djMn
k6q1cQftqooWRoeTuvdV5gOjTtmvVC2iAaGNp0LcVqDqUTJmZHNgFxLUtsHv6Skn
v9zO45QQ7+nVZ8mKi2ancWxMR6ea7Gogh++CX4qnvkI+V2X/qr6hfHfZyIgIkMXD
DGIWof5mSgcDvEA1nlylb+ceXqmp2R/6+0Szh3fOx5riSMcHhrgUFgS4N27cSSNx
/g+3eAG0kl9uPcIC3FURedg8rQIbD9bcTEh3+s2+4CUX3RJCU8rg/caBcWu9mw9L
UpfSIcue2gUCAwEAAaN7MHkwCQYDVR0TBAIwADAsBglghkgBhvhCAQ0EHxYdT3Bl
blNTTCBHZW5lcmF0ZWQgQ2VydGlmaWNhdGUwHQYDVR0OBBYEFPA16wc2Nefxck2m
LKIiXGROGajeMB8GA1UdIwQYMBaAFCw8CqkfRV1pfHLdwVuYv7NEALocMA0GCSqG
SIb3DQEBCwUAA4IBAQAyx81VJjR72LNC4EAWF8UaLkzsuSMOthm9woAP7WIgBGIq
G2dptp5IxAR19f3XX+DiJRqVKt9gvFJYwzktv2FZKH9VC8c3dZhQyy1qXgwNF7fD
ZHNnhfkSJzNHXkKtd/ZDCDSMlJhJN9+uVxObrGsSKx718h1LACoaAZsmX55yUh+3
tRLpSH3Xv+Ix2CcbwOdQMH4izfLDv6ZQFxY0ZCEdBov7BtADNEfWflTZiibvmhbC
anDfHaId8aUj3i18ptF7gkN8mrFJ0PfS2kBIAsPcNWbVbqZ5evkbhrbyQUCxXQVk
ULfnCO96hEiJ4Gkna7wnrZhFk4wXNGitl4v8cLSl
-----END CERTIFICATE-----
