Certificate:
    Data:
        Version: 3 (0x2)
        Serial Number: 305419904 (0x12345680)
        Signature Algorithm: sha256WithRSAEncryption
        Issuer: CN=SRK3_sha256_2048_65537_v3_ca
        Validity
            Not Before: Nov 14 13:05:55 2024 GMT
            Not After : Nov 13 13:05:55 2029 GMT
        Subject: CN=IMG3_1_sha256_2048_65537_v3_usr
        Subject Public Key Info:
            Public Key Algorithm: rsaEncryption
                RSA Public-Key: (2048 bit)
                Modulus:
                    00:a3:4f:b4:8a:a1:b2:9f:e3:a1:1e:38:09:4e:9b:
                    8e:26:e4:0e:f0:fa:83:74:ba:a4:80:6c:0f:13:7a:
                    18:70:72:58:6b:95:e5:42:3f:99:90:b0:00:24:43:
                    c2:ec:16:6f:ba:a2:4f:d4:f2:59:78:70:fb:88:2d:
                    55:4d:56:48:86:0a:9c:4d:39:3d:65:d3:c6:0b:e2:
                    06:f4:76:b8:11:29:ff:f5:32:30:80:97:90:ff:30:
                    e5:d1:9a:8b:ee:37:29:d1:38:da:a3:c6:09:8e:8d:
                    65:19:3e:7d:1d:fe:1c:2d:1e:07:1f:c9:07:c8:6a:
                    2a:ea:f0:47:3e:26:a4:68:e6:a6:da:a5:95:8a:7f:
                    d4:5a:f7:b8:23:4f:5b:bd:83:f1:69:fa:cf:f8:a3:
                    a7:08:32:89:fc:77:32:61:0e:f3:60:42:8e:b8:7e:
                    4b:00:d7:a2:a0:dc:ea:3d:ea:a5:7b:62:a5:4f:44:
                    73:f8:37:31:59:12:c3:47:1a:f8:50:0f:8c:28:ba:
                    9c:50:b1:df:1b:b0:48:d6:28:a4:83:81:b4:19:6f:
                    b8:ca:2d:c1:c5:ae:d6:87:48:ee:a9:79:55:fc:3b:
                    89:cc:76:ee:7f:82:58:b7:29:15:ff:9b:5f:41:a3:
                    e8:34:3e:d7:ec:aa:62:e2:10:4e:56:98:f9:00:ed:
                    9d:69
                Exponent: 65537 (0x10001)
        X509v3 extensions:
            X509v3 Basic Constraints: 
                CA:FALSE
            Netscape Comment: 
                OpenSSL Generated Certificate
            X509v3 Subject Key Identifier: 
                AB:C6:94:F8:24:2C:5C:E4:2D:9E:14:2F:40:24:E2:1C:2F:2F:34:8A
            X509v3 Authority Key Identifier: 
                keyid:90:97:52:A1:67:9C:AD:24:CB:95:4D:11:6B:45:02:72:33:33:80:9E

    Signature Algorithm: sha256WithRSAEncryption
         1f:48:45:a7:ed:bd:83:e1:98:a4:cf:f8:e3:99:e0:0d:24:b1:
         82:14:db:c5:ff:77:3c:a7:41:95:44:cf:59:20:44:97:df:a2:
         da:39:e5:c6:f9:cd:51:3d:62:f5:5d:f3:35:3b:f3:e6:31:7b:
         3b:75:ba:fd:c6:72:73:83:a8:5a:c1:af:62:77:cc:f5:84:25:
         64:ed:56:c9:91:c6:39:56:77:7e:cc:7b:40:3c:84:81:48:8b:
         bc:cc:3c:f9:06:bb:07:c9:57:3c:b8:a1:88:f0:57:4a:ca:e6:
         26:63:a2:42:69:c0:27:47:13:0b:dd:83:aa:f8:a1:24:ae:7f:
         5e:cf:56:a0:41:db:64:c2:e5:96:32:ac:b5:96:e6:78:e2:6d:
         d9:15:4d:22:af:80:c0:f5:88:cd:fa:a9:bb:e4:26:35:22:b6:
         ba:1b:68:18:35:ee:b9:c5:2c:91:f7:6b:dd:9c:cb:f0:05:40:
         25:97:e4:7e:5c:0b:be:9a:01:20:d4:a1:56:bc:62:55:cf:a8:
         c6:8d:23:2f:3c:6b:f6:07:fe:9d:9e:39:3f:96:67:c8:f6:d4:
         f5:55:7b:6d:98:25:97:9d:b4:94:96:ed:e2:84:14:d1:42:d2:
         43:12:45:a7:9c:e7:a8:35:d7:0b:22:00:90:1e:f4:d9:34:d1:
         eb:7a:e9:de
-----BEGIN CERTIFICATE-----
MIIDSjCCAjKgAwIBAgIEEjRWgDANBgkqhkiG9w0BAQsFADAnMSUwIwYDVQQDDBxT
UkszX3NoYTI1Nl8yMDQ4XzY1NTM3X3YzX2NhMB4XDTI0MTExNDEzMDU1NVoXDTI5
MTExMzEzMDU1NVowKjEoMCYGA1UEAwwfSU1HM18xX3NoYTI1Nl8yMDQ4XzY1NTM3
X3YzX3VzcjCCASIwDQYJKoZIhvcNAQEBBQADggEPADCCAQoCggEBAKNPtIqhsp/j
oR44CU6bjibkDvD6g3S6pIBsDxN6GHByWGuV5UI/mZCwACRDwuwWb7qiT9TyWXhw
+4gtVU1WSIYKnE05PWXTxgviBvR2uBEp//UyMICXkP8w5dGai+43KdE42qPGCY6N
ZRk+fR3+HC0eBx/JB8hqKurwRz4mpGjmptqllYp/1Fr3uCNPW72D8Wn6z/ijpwgy
ifx3MmEO82BCjrh+SwDXoqDc6j3qpXtipU9Ec/g3MVkSw0ca+FAPjCi6nFCx3xuw
SNYopIOBtBlvuMotwcWu1odI7ql5Vfw7icx27n+CWLcpFf+bX0Gj6DQ+1+yqYuIQ
TlaY+QDtnWkCAwEAAaN7MHkwCQYDVR0TBAIwADAsBglghkgBhvhCAQ0EHxYdT3Bl
blNTTCBHZW5lcmF0ZWQgQ2VydGlmaWNhdGUwHQYDVR0OBBYEFKvGlPgkLFzkLZ4U
L0Ak4hwvLzSKMB8GA1UdIwQYMBaAFJCXUqFnnK0ky5VNEWtFAnIzM4CeMA0GCSqG
SIb3DQEBCwUAA4IBAQAfSEWn7b2D4Zikz/jjmeANJLGCFNvF/3c8p0GVRM9ZIESX
36LaOeXG+c1RPWL1XfM1O/PmMXs7dbr9xnJzg6hawa9id8z1hCVk7VbJkcY5Vnd+
zHtAPISBSIu8zDz5BrsHyVc8uKGI8FdKyuYmY6JCacAnRxML3YOq+KEkrn9ez1ag
QdtkwuWWMqy1luZ44m3ZFU0ir4DA9YjN+qm75CY1Ira6G2gYNe65xSyR92vdnMvw
BUAll+R+XAu+mgEg1KFWvGJVz6jGjSMvPGv2B/6dnjk/lmfI9tT1VXttmCWXnbSU
lu3ihBTRQtJDEkWnnOeoNdcLIgCQHvTZNNHreune
-----END CERTIFICATE-----
