Certificate:
    Data:
        Version: 3 (0x2)
        Serial Number: 305419898 (0x1234567a)
        Signature Algorithm: sha256WithRSAEncryption
        Issuer: CN=SRK1_sha256_2048_65537_v3_ca
        Validity
            Not Before: Nov 14 13:05:54 2024 GMT
            Not After : Nov 13 13:05:54 2029 GMT
        Subject: CN=IMG1_1_sha256_2048_65537_v3_usr
        Subject Public Key Info:
            Public Key Algorithm: rsaEncryption
                RSA Public-Key: (2048 bit)
                Modulus:
                    00:cb:21:c3:70:69:99:a0:c1:2b:e3:a7:1c:3a:db:
                    8f:de:a6:16:73:63:d2:08:a4:4a:2e:e5:dc:2f:3c:
                    ae:22:28:1b:78:da:c8:de:58:a7:c0:3f:b4:78:e4:
                    cc:12:0d:f6:5a:eb:52:1f:ea:7f:b4:dc:b3:37:19:
                    dc:60:14:d9:58:78:d8:85:77:b4:40:f8:f1:03:5c:
                    ea:0a:d6:95:a3:d7:f7:ff:66:57:1e:0d:06:94:be:
                    12:7b:50:fb:df:22:44:21:6e:86:ec:d0:3b:97:7d:
                    07:2e:e8:88:fa:64:ad:57:54:68:b9:23:52:ee:42:
                    46:7c:14:f2:a4:28:4d:e5:7e:e2:89:24:d7:81:6c:
                    3a:c8:3e:15:28:cc:9d:81:ac:18:b4:9a:9c:d4:5f:
                    95:bd:71:85:47:69:e9:73:78:53:e5:7e:d2:a5:11:
                    2d:cb:38:e8:d9:b4:d8:3c:50:ad:3e:b3:e9:39:e3:
                    3c:ed:0f:80:e6:83:fc:ea:3d:44:b5:13:17:15:15:
                    2d:8d:dc:24:73:ca:e1:c6:6e:7e:d2:18:2d:9c:59:
                    0b:4f:db:70:a4:2e:38:7b:e0:6a:5d:49:f3:e8:d8:
                    2a:7e:15:1c:43:30:4f:7c:4a:83:80:35:92:b6:55:
                    bb:1e:37:81:81:a1:b2:8a:10:7d:79:d6:a6:59:6d:
                    f7:cb
                Exponent: 65537 (0x10001)
        X509v3 extensions:
            X509v3 Basic Constraints: 
                CA:FALSE
            Netscape Comment: 
                OpenSSL Generated Certificate
            X509v3 Subject Key Identifier: 
                00:08:01:76:D7:39:E3:EC:51:4C:E0:2C:7F:48:9C:1C:12:F7:E3:B3
            X509v3 Authority Key Identifier: 
                keyid:2C:3C:0A:A9:1F:45:5D:69:7C:72:DD:C1:5B:98:BF:B3:44:00:BA:1C

    Signature Algorithm: sha256WithRSAEncryption
         0b:fb:07:e4:72:59:5c:3b:25:8b:cd:23:35:54:7e:f1:d2:71:
         81:87:cb:57:76:c8:8b:55:5e:ac:02:9a:69:c8:48:3c:9f:d4:
         d6:75:5b:69:88:dd:a3:d7:79:d1:44:ae:2c:55:53:7f:58:4a:
         78:4a:9f:3f:c4:1c:82:25:6a:5f:2f:cc:1e:03:0d:73:69:18:
         58:6c:69:8b:0b:37:b3:a7:c4:c5:20:6d:7c:01:e6:c1:58:16:
         ca:05:c3:b1:4e:a0:93:a2:46:64:08:f7:bf:0b:6e:a5:22:a1:
         1c:b0:27:66:8a:98:30:f4:b0:cf:5d:f4:f2:72:a1:dd:4c:2a:
         02:c9:bc:0a:07:20:b8:34:54:a8:29:cb:19:39:77:d3:e1:69:
         f2:e1:85:15:03:3f:06:79:b9:af:97:cf:9b:cc:cb:df:45:ca:
         cd:c0:d9:3b:8e:ed:ed:c5:b1:30:63:3c:e1:e0:0d:ee:3b:42:
         01:9f:9c:ec:fd:c4:70:18:c9:b8:a5:0c:5a:9e:2c:99:16:73:
         10:7a:54:4f:3c:be:a1:7c:c5:37:58:02:04:af:a1:71:ca:52:
         2d:d7:4b:4b:8c:36:c6:0e:09:6e:4b:99:2f:60:07:bd:74:81:
         d2:f7:40:78:75:5f:00:59:f7:2c:eb:48:ec:b6:8f:df:30:3e:
         e1:07:04:0d
-----BEGIN CERTIFICATE-----
MIIDSjCCAjKgAwIBAgIEEjRWejANBgkqhkiG9w0BAQsFADAnMSUwIwYDVQQDDBxT
UksxX3NoYTI1Nl8yMDQ4XzY1NTM3X3YzX2NhMB4XDTI0MTExNDEzMDU1NFoXDTI5
MTExMzEzMDU1NFowKjEoMCYGA1UEAwwfSU1HMV8xX3NoYTI1Nl8yMDQ4XzY1NTM3
X3YzX3VzcjCCASIwDQYJKoZIhvcNAQEBBQADggEPADCCAQoCggEBAMshw3BpmaDB
K+OnHDrbj96mFnNj0gikSi7l3C88riIoG3jayN5Yp8A/tHjkzBIN9lrrUh/qf7Tc
szcZ3GAU2Vh42IV3tED48QNc6grWlaPX9/9mVx4NBpS+EntQ+98iRCFuhuzQO5d9
By7oiPpkrVdUaLkjUu5CRnwU8qQoTeV+4okk14FsOsg+FSjMnYGsGLSanNRflb1x
hUdp6XN4U+V+0qURLcs46Nm02DxQrT6z6TnjPO0PgOaD/Oo9RLUTFxUVLY3cJHPK
4cZuftIYLZxZC0/bcKQuOHvgal1J8+jYKn4VHEMwT3xKg4A1krZVux43gYGhsooQ
fXnWpllt98sCAwEAAaN7MHkwCQYDVR0TBAIwADAsBglghkgBhvhCAQ0EHxYdT3Bl
blNTTCBHZW5lcmF0ZWQgQ2VydGlmaWNhdGUwHQYDVR0OBBYEFAAIAXbXOePsUUzg
LH9InBwS9+OzMB8GA1UdIwQYMBaAFCw8CqkfRV1pfHLdwVuYv7NEALocMA0GCSqG
SIb3DQEBCwUAA4IBAQAL+wfkcllcOyWLzSM1VH7x0nGBh8tXdsiLVV6sApppyEg8
n9TWdVtpiN2j13nRRK4sVVN/WEp4Sp8/xByCJWpfL8weAw1zaRhYbGmLCzezp8TF
IG18AebBWBbKBcOxTqCTokZkCPe/C26lIqEcsCdmipgw9LDPXfTycqHdTCoCybwK
ByC4NFSoKcsZOXfT4Wny4YUVAz8Gebmvl8+bzMvfRcrNwNk7ju3txbEwYzzh4A3u
O0IBn5zs/cRwGMm4pQxaniyZFnMQelRPPL6hfMU3WAIEr6FxylIt10tLjDbGDglu
S5kvYAe9dIHS90B4dV8AWfcs60jsto/fMD7hBwQN
-----END CERTIFICATE-----
