Certificate:
    Data:
        Version: 3 (0x2)
        Serial Number: 305419902 (0x1234567e)
        Signature Algorithm: sha256WithRSAEncryption
        Issuer: CN=CA1_sha256_2048_65537_v3_ca
        Validity
            Not Before: Nov 14 13:05:55 2024 GMT
            Not After : Nov 13 13:05:55 2029 GMT
        Subject: CN=SRK3_sha256_2048_65537_v3_ca
        Subject Public Key Info:
            Public Key Algorithm: rsaEncryption
                RSA Public-Key: (2048 bit)
                Modulus:
                    00:cf:79:b5:bf:fa:be:68:18:c7:69:65:ae:ce:34:
                    71:37:d1:30:54:d3:0b:2a:2a:50:bf:80:ba:b0:9f:
                    30:f2:a0:de:66:65:05:33:0f:c8:90:eb:e0:2c:92:
                    29:d0:90:3d:f8:e0:27:27:39:1a:d9:02:04:63:af:
                    ff:23:96:39:58:a3:4c:e9:a0:54:70:dc:7f:92:e0:
                    96:e5:4a:dc:05:f9:68:b4:bf:04:d0:c1:78:95:b6:
                    94:57:e4:5c:29:99:2c:85:b3:ef:cf:b2:94:21:5f:
                    ca:7c:53:2e:6a:b3:89:57:39:05:96:0e:b9:3b:d1:
                    1e:46:e2:8a:62:42:1d:49:5f:86:8c:89:6c:ca:ba:
                    4c:0c:43:6b:8f:c9:08:f2:6e:18:4a:6f:0d:aa:ac:
                    77:2a:09:c3:f2:2f:7d:6c:e2:58:7a:56:f0:4b:0a:
                    16:66:46:ca:76:b7:79:f3:90:2a:3e:18:de:65:c1:
                    9f:ca:34:fd:c5:4a:d8:d0:e0:4e:66:5e:b1:25:77:
                    32:d8:4e:2e:80:fd:53:b6:58:cd:05:b2:c0:e9:05:
                    b0:c8:16:da:19:08:03:79:f3:0d:7e:1a:9c:ac:98:
                    3b:05:e8:3a:b5:ff:40:c2:a2:51:87:40:d0:44:0a:
                    9b:59:c3:e1:8a:be:11:9a:70:6a:dc:f8:76:03:f1:
                    70:15
                Exponent: 65537 (0x10001)
        X509v3 extensions:
            X509v3 Subject Key Identifier: 
                90:97:52:A1:67:9C:AD:24:CB:95:4D:11:6B:45:02:72:33:33:80:9E
            X509v3 Authority Key Identifier: 
                keyid:92:64:AB:F0:AB:05:61:43:91:78:38:58:39:2F:7C:D4:29:13:B8:FB
                DirName:/CN=CA1_sha256_2048_65537_v3_ca
                serial:5A:0E:CF:69:45:65:7C:F4:6B:50:FD:33:75:56:4D:99:09:1C:CC:C1

            X509v3 Basic Constraints: critical
                CA:TRUE
            X509v3 Key Usage: 
                Certificate Sign
    Signature Algorithm: sha256WithRSAEncryption
         2c:2f:ae:38:f9:91:19:d4:18:91:12:4b:b8:22:35:32:71:eb:
         83:b6:e9:da:7e:89:22:dd:a8:6d:49:17:53:61:bf:39:95:43:
         38:af:66:dd:53:93:c4:b7:45:6f:ca:3e:a1:50:d6:27:bc:a0:
         2d:bb:9a:46:f9:e3:6c:72:ff:83:4b:01:4c:65:10:fd:27:88:
         2f:aa:4a:8c:c8:d4:8f:be:41:4f:77:ad:c0:87:3d:cb:61:41:
         be:ec:f0:02:8b:01:dd:6c:7b:d5:35:a1:ba:d3:c4:d3:c4:62:
         2e:cb:f6:1e:29:1a:99:6d:65:ab:c9:ae:9f:ba:2b:3c:f5:56:
         62:08:c8:29:92:73:26:fc:5d:de:35:e4:7d:cc:4a:12:ec:32:
         e1:e6:14:14:45:5e:69:f1:64:e2:ea:05:df:db:e4:07:85:cd:
         4a:fe:b0:21:b8:1b:33:f8:8b:14:02:43:8a:c1:9b:58:a5:59:
         13:ff:2c:f4:56:71:e0:96:03:b2:21:7d:d4:c9:12:45:2b:53:
         89:0f:2d:dc:58:f0:93:71:f9:7e:19:4c:c0:a0:e9:56:59:30:
         35:78:14:0d:39:fb:31:2a:c0:8b:4c:51:2c:c7:94:68:b7:e7:
         38:8b:46:60:3d:cc:88:c2:72:31:87:5d:09:79:10:b2:3c:f2:
         c6:ae:90:bd
-----BEGIN CERTIFICATE-----
MIIDbzCCAlegAwIBAgIEEjRWfjANBgkqhkiG9w0BAQsFADAmMSQwIgYDVQQDFBtD
QTFfc2hhMjU2XzIwNDhfNjU1MzdfdjNfY2EwHhcNMjQxMTE0MTMwNTU1WhcNMjkx
MTEzMTMwNTU1WjAnMSUwIwYDVQQDDBxTUkszX3NoYTI1Nl8yMDQ4XzY1NTM3X3Yz
X2NhMIIBIjANBgkqhkiG9w0BAQEFAAOCAQ8AMIIBCgKCAQEAz3m1v/q+aBjHaWWu
zjRxN9EwVNMLKipQv4C6sJ8w8qDeZmUFMw/IkOvgLJIp0JA9+OAnJzka2QIEY6//
I5Y5WKNM6aBUcNx/kuCW5UrcBflotL8E0MF4lbaUV+RcKZkshbPvz7KUIV/KfFMu
arOJVzkFlg65O9EeRuKKYkIdSV+GjIlsyrpMDENrj8kI8m4YSm8Nqqx3KgnD8i99
bOJYelbwSwoWZkbKdrd585AqPhjeZcGfyjT9xUrY0OBOZl6xJXcy2E4ugP1TtljN
BbLA6QWwyBbaGQgDefMNfhqcrJg7Beg6tf9AwqJRh0DQRAqbWcPhir4RmnBq3Ph2
A/FwFQIDAQABo4GjMIGgMB0GA1UdDgQWBBSQl1KhZ5ytJMuVTRFrRQJyMzOAnjBh
BgNVHSMEWjBYgBSSZKvwqwVhQ5F4OFg5L3zUKRO4+6EqpCgwJjEkMCIGA1UEAxQb
Q0ExX3NoYTI1Nl8yMDQ4XzY1NTM3X3YzX2NhghRaDs9pRWV89GtQ/TN1Vk2ZCRzM
wTAPBgNVHRMBAf8EBTADAQH/MAsGA1UdDwQEAwICBDANBgkqhkiG9w0BAQsFAAOC
AQEALC+uOPmRGdQYkRJLuCI1MnHrg7bp2n6JIt2obUkXU2G/OZVDOK9m3VOTxLdF
b8o+oVDWJ7ygLbuaRvnjbHL/g0sBTGUQ/SeIL6pKjMjUj75BT3etwIc9y2FBvuzw
AosB3Wx71TWhutPE08RiLsv2HikamW1lq8mun7orPPVWYgjIKZJzJvxd3jXkfcxK
Euwy4eYUFEVeafFk4uoF39vkB4XNSv6wIbgbM/iLFAJDisGbWKVZE/8s9FZx4JYD
siF91MkSRStTiQ8t3Fjwk3H5fhlMwKDpVlkwNXgUDTn7MSrAi0xRLMeUaLfnOItG
YD3MiMJyMYddCXkQsjzyxq6QvQ==
-----END CERTIFICATE-----
